; Function Attrs: mustprogress nofree norecurse nosync nounwind willreturn memory(argmem: write) uwtable
define hidden void @_ZN4cvc58internal6theory22TheoryInferenceManager5resetEv(ptr nocapture noundef nonnull writeonly align 8 dereferenceable(256) %this) local_unnamed_addr #7 align 2 {
entry:
  %d_numConflicts = getelementptr inbounds i8, ptr %this, i64 216
  store i32 0, ptr %d_numConflicts, align 8
  %d_numCurrentLemmas = getelementptr inbounds i8, ptr %this, i64 220
  store i32 0, ptr %d_numCurrentLemmas, align 4
  %d_numCurrentFacts = getelementptr inbounds i8, ptr %this, i64 224
  store i32 0, ptr %d_numCurrentFacts, align 8
  ret void
}